ccopy_reg
_reconstructor
p1
(c__main__
StudentCourse
p2
c__builtin__
object
p3
NtRp4
(dp5
S'courses'
p6
(S'math'
p7
S'english'
p8
tp9
sS'name'
p10
S'Dai'
p11
sS'year'
p12
S'senior'
p13
sb.ccopy_reg
_reconstructor
p1
(c__main__
StudentCourse
p2
c__builtin__
object
p3
NtRp4
(dp5
S'courses'
p6
(S'python'
p7
S'R'
tp8
sS'name'
p9
S'Jessie'
p10
sS'year'
p11
S'Junior'
p12
sb.